; Function Attrs: mustprogress uwtable
define dso_local void @_ZN3net18ReliableQuicStream5ResetENS_22QuicRstStreamErrorCodeE(ptr nocapture noundef nonnull align 8 dereferenceable(377) %this, i32 noundef %error) unnamed_addr #2 align 2 {
entry:
  %stream_error_ = getelementptr inbounds i8, ptr %this, i64 248
  store i32 %error, ptr %stream_error_, align 8
  %session_.i = getelementptr inbounds i8, ptr %this, i64 224
  %0 = load ptr, ptr %session_.i, align 8
  %id_.i = getelementptr inbounds i8, ptr %this, i64 216
  %1 = load i32, ptr %id_.i, align 8
  %stream_bytes_written_ = getelementptr inbounds i8, ptr %this, i64 240
  %2 = load i64, ptr %stream_bytes_written_, align 8
  %vtable = load ptr, ptr %0, align 8
  %vfn = getelementptr inbounds i8, ptr %vtable, i64 168
  %3 = load ptr, ptr %vfn, align 8
  tail call void %3(ptr noundef nonnull align 8 dereferenceable(2044) %0, i32 noundef %1, i32 noundef %error, i64 noundef %2)
  %rst_sent_ = getelementptr inbounds i8, ptr %this, i64 261
  store i8 1, ptr %rst_sent_, align 1
  ret void
}